; Function Attrs: nounwind uwtable
define internal fastcc ptr @extract_or_clause(ptr noundef readonly captures(none) %0, ptr noundef nonnull readonly captures(none) %1) unnamed_addr #0 {
  %3 = getelementptr inbounds nuw i8, ptr %0, i64 88
  %4 = load ptr, ptr %3, align 8
  %5 = getelementptr inbounds nuw i8, ptr %4, i64 8
  %6 = load ptr, ptr %5, align 8
  %.not = icmp eq ptr %6, null
  br i1 %.not, label %.thread87, label %.lr.ph105

.lr.ph105:                                        ; preds = %2
  %7 = getelementptr inbounds nuw i8, ptr %6, i64 4
  %8 = getelementptr inbounds nuw i8, ptr %6, i64 16
  %9 = getelementptr inbounds nuw i8, ptr %1, i64 8
  %10 = load i32, ptr %7, align 4
  %11 = icmp sgt i32 %10, 0
  br i1 %11, label %.lr.ph121, label %._crit_edge

.lr.ph121:                                        ; preds = %.lr.ph105, %79
  %.044104120 = phi ptr [ %.246, %79 ], [ null, %.lr.ph105 ]
  %indvars.iv110119 = phi i64 [ %indvars.iv.next111, %79 ], [ 0, %.lr.ph105 ]
  %12 = load ptr, ptr %8, align 8
  %13 = getelementptr inbounds nuw %union.ListCell, ptr %12, i64 %indvars.iv110119
  %14 = load ptr, ptr %13, align 8
  %.not.i = icmp eq ptr %14, null
  br i1 %.not.i, label %is_andclause.exit.thread, label %15

15:                                               ; preds = %.lr.ph121
  %16 = load i32, ptr %14, align 4
  %17 = icmp eq i32 %16, 21
  br i1 %17, label %is_andclause.exit, label %is_andclause.exit.thread

is_andclause.exit:                                ; preds = %15
  %18 = getelementptr inbounds nuw i8, ptr %14, i64 4
  %19 = load i32, ptr %18, align 4
  %20 = icmp eq i32 %19, 0
  br i1 %20, label %21, label %is_andclause.exit.thread

21:                                               ; preds = %is_andclause.exit
  %22 = getelementptr inbounds nuw i8, ptr %14, i64 8
  %23 = load ptr, ptr %22, align 8
  %24 = getelementptr inbounds nuw i8, ptr %23, i64 4
  %.not60 = icmp eq ptr %23, null
  br i1 %.not60, label %.thread87, label %.lr.ph

.lr.ph:                                           ; preds = %21
  %25 = getelementptr inbounds nuw i8, ptr %23, i64 16
  %26 = load i32, ptr %24, align 4
  %27 = icmp sgt i32 %26, 0
  br i1 %27, label %.lr.ph101, label %.thread87

.lr.ph101:                                        ; preds = %.lr.ph, %is_safe_restriction_clause_for.exit.thread
  %indvars.iv = phi i64 [ %indvars.iv.next, %is_safe_restriction_clause_for.exit.thread ], [ 0, %.lr.ph ]
  %.05294100 = phi ptr [ %.254, %is_safe_restriction_clause_for.exit.thread ], [ null, %.lr.ph ]
  %28 = load ptr, ptr %25, align 8
  %29 = getelementptr inbounds nuw %union.ListCell, ptr %28, i64 %indvars.iv
  %30 = load ptr, ptr %29, align 8
  %31 = tail call zeroext i1 @restriction_is_or_clause(ptr noundef %30) #4
  br i1 %31, label %32, label %34

32:                                               ; preds = %.lr.ph101
  %33 = tail call fastcc ptr @extract_or_clause(ptr noundef %30, ptr noundef %1)
  %.not64 = icmp eq ptr %33, null
  br i1 %.not64, label %is_safe_restriction_clause_for.exit.thread, label %is_safe_restriction_clause_for.exit.thread.sink.split

34:                                               ; preds = %.lr.ph101
  %35 = getelementptr inbounds nuw i8, ptr %30, i64 18
  %36 = load i8, ptr %35, align 2, !range !6, !noundef !7
  %37 = trunc nuw i8 %36 to i1
  br i1 %37, label %is_safe_restriction_clause_for.exit.thread, label %38

38:                                               ; preds = %34
  %39 = getelementptr inbounds nuw i8, ptr %30, i64 40
  %40 = load ptr, ptr %39, align 8
  %41 = load ptr, ptr %9, align 8
  %42 = tail call zeroext i1 @bms_equal(ptr noundef %40, ptr noundef %41) #4
  br i1 %42, label %is_safe_restriction_clause_for.exit, label %is_safe_restriction_clause_for.exit.thread

is_safe_restriction_clause_for.exit:              ; preds = %38
  %43 = getelementptr inbounds nuw i8, ptr %30, i64 8
  %44 = load ptr, ptr %43, align 8
  %45 = tail call zeroext i1 @contain_volatile_functions(ptr noundef %44) #4
  br i1 %45, label %is_safe_restriction_clause_for.exit.thread, label %46

46:                                               ; preds = %is_safe_restriction_clause_for.exit
  %47 = load ptr, ptr %43, align 8
  br label %is_safe_restriction_clause_for.exit.thread.sink.split

is_safe_restriction_clause_for.exit.thread.sink.split: ; preds = %32, %46
  %.sink = phi ptr [ %47, %46 ], [ %33, %32 ]
  %48 = tail call ptr @lappend(ptr noundef %.05294100, ptr noundef %.sink) #4
  br label %is_safe_restriction_clause_for.exit.thread

is_safe_restriction_clause_for.exit.thread:       ; preds = %is_safe_restriction_clause_for.exit.thread.sink.split, %38, %34, %32, %is_safe_restriction_clause_for.exit
  %.254 = phi ptr [ %.05294100, %is_safe_restriction_clause_for.exit ], [ %.05294100, %32 ], [ %.05294100, %34 ], [ %.05294100, %38 ], [ %48, %is_safe_restriction_clause_for.exit.thread.sink.split ]
  %indvars.iv.next = add nuw nsw i64 %indvars.iv, 1
  %49 = load i32, ptr %24, align 4
  %50 = sext i32 %49 to i64
  %51 = icmp slt i64 %indvars.iv.next, %50
  br i1 %51, label %.lr.ph101, label %.thread73

is_andclause.exit.thread:                         ; preds = %.lr.ph121, %15, %is_andclause.exit
  %52 = getelementptr inbounds nuw i8, ptr %14, i64 18
  %53 = load i8, ptr %52, align 2, !range !6, !noundef !7
  %54 = trunc nuw i8 %53 to i1
  br i1 %54, label %.thread87, label %55

55:                                               ; preds = %is_andclause.exit.thread
  %56 = getelementptr inbounds nuw i8, ptr %14, i64 40
  %57 = load ptr, ptr %56, align 8
  %58 = load ptr, ptr %9, align 8
  %59 = tail call zeroext i1 @bms_equal(ptr noundef %57, ptr noundef %58) #4
  br i1 %59, label %is_safe_restriction_clause_for.exit67, label %.thread87

is_safe_restriction_clause_for.exit67:            ; preds = %55
  %60 = getelementptr inbounds nuw i8, ptr %14, i64 8
  %61 = load ptr, ptr %60, align 8
  %62 = tail call zeroext i1 @contain_volatile_functions(ptr noundef %61) #4
  br i1 %62, label %.thread87, label %63

63:                                               ; preds = %is_safe_restriction_clause_for.exit67
  %64 = load ptr, ptr %60, align 8
  %65 = tail call ptr @lappend(ptr noundef null, ptr noundef %64) #4
  br label %.thread73

.thread73:                                        ; preds = %is_safe_restriction_clause_for.exit.thread, %63
  %.355 = phi ptr [ %65, %63 ], [ %.254, %is_safe_restriction_clause_for.exit.thread ]
  %.not62 = icmp eq ptr %.355, null
  br i1 %.not62, label %.thread87, label %66

66:                                               ; preds = %.thread73
  %67 = tail call ptr @make_ands_explicit(ptr noundef nonnull %.355) #4
  %.not.i68 = icmp eq ptr %67, null
  br i1 %.not.i68, label %is_orclause.exit.thread, label %68

68:                                               ; preds = %66
  %69 = load i32, ptr %67, align 4
  %70 = icmp eq i32 %69, 21
  br i1 %70, label %is_orclause.exit, label %is_orclause.exit.thread

is_orclause.exit:                                 ; preds = %68
  %71 = getelementptr inbounds nuw i8, ptr %67, i64 4
  %72 = load i32, ptr %71, align 4
  %73 = icmp eq i32 %72, 1
  br i1 %73, label %74, label %is_orclause.exit.thread

74:                                               ; preds = %is_orclause.exit
  %75 = getelementptr inbounds nuw i8, ptr %67, i64 8
  %76 = load ptr, ptr %75, align 8
  %77 = tail call ptr @list_concat(ptr noundef %.044104120, ptr noundef %76) #4
  br label %79

is_orclause.exit.thread:                          ; preds = %66, %68, %is_orclause.exit
  %78 = tail call ptr @lappend(ptr noundef %.044104120, ptr noundef %67) #4
  br label %79

79:                                               ; preds = %is_orclause.exit.thread, %74
  %.246 = phi ptr [ %77, %74 ], [ %78, %is_orclause.exit.thread ]
  %indvars.iv.next111 = add nuw nsw i64 %indvars.iv110119, 1
  %80 = load i32, ptr %7, align 4
  %81 = sext i32 %80 to i64
  %82 = icmp slt i64 %indvars.iv.next111, %81
  br i1 %82, label %.lr.ph121, label %._crit_edge

._crit_edge:                                      ; preds = %79, %.lr.ph105
  %.044104.lcssa = phi ptr [ null, %.lr.ph105 ], [ %.246, %79 ]
  %.not63 = icmp eq ptr %.044104.lcssa, null
  br i1 %.not63, label %.thread87, label %83

83:                                               ; preds = %._crit_edge
  %84 = tail call ptr @make_orclause(ptr noundef nonnull %.044104.lcssa) #4
  br label %.thread87

.thread87:                                        ; preds = %.lr.ph, %21, %.thread73, %is_safe_restriction_clause_for.exit67, %is_andclause.exit.thread, %55, %2, %._crit_edge, %83
  %.3 = phi ptr [ %84, %83 ], [ null, %._crit_edge ], [ null, %2 ], [ null, %55 ], [ null, %is_andclause.exit.thread ], [ null, %is_safe_restriction_clause_for.exit67 ], [ null, %.thread73 ], [ null, %21 ], [ null, %.lr.ph ]
  ret ptr %.3
}